; Function Attrs: nounwind uwtable
define internal void @__cxx_global_array_dtor(ptr nocapture readnone %0) #5 section ".text.startup" personality ptr @__gxx_personality_v0 {
  br label %2

2:                                                ; preds = %_ZN8t_filenmD2Ev.exit, %1
  %3 = phi ptr [ getelementptr inbounds ([3 x %struct.t_filenm], ptr @_ZZ13gmx_pme_erroriPPcE3fnm, i64 1, i64 0), %1 ], [ %4, %_ZN8t_filenmD2Ev.exit ]
  %4 = getelementptr inbounds i8, ptr %3, i64 -56
  %5 = getelementptr inbounds i8, ptr %3, i64 -24
  %6 = load ptr, ptr %5, align 8
  %7 = getelementptr inbounds i8, ptr %3, i64 -16
  %8 = load ptr, ptr %7, align 8
  %.not4.i.i.i.i.i = icmp eq ptr %6, %8
  br i1 %.not4.i.i.i.i.i, label %_ZSt8_DestroyIPNSt7__cxx1112basic_stringIcSt11char_traitsIcESaIcEEES5_EvT_S7_RSaIT0_E.exit.i.i, label %.lr.ph.i.i.i.i.i

.lr.ph.i.i.i.i.i:                                 ; preds = %2, %.lr.ph.i.i.i.i.i
  %.05.i.i.i.i.i = phi ptr [ %9, %.lr.ph.i.i.i.i.i ], [ %6, %2 ]
  tail call void @_ZNSt7__cxx1112basic_stringIcSt11char_traitsIcESaIcEED1Ev(ptr noundef nonnull align 8 dereferenceable(32) %.05.i.i.i.i.i) #18
  %9 = getelementptr inbounds i8, ptr %.05.i.i.i.i.i, i64 32
  %.not.i.i.i.i.i = icmp eq ptr %9, %8
  br i1 %.not.i.i.i.i.i, label %_ZSt8_DestroyIPNSt7__cxx1112basic_stringIcSt11char_traitsIcESaIcEEES5_EvT_S7_RSaIT0_E.exitthread-pre-split.i.i, label %.lr.ph.i.i.i.i.i, !llvm.loop !9

_ZSt8_DestroyIPNSt7__cxx1112basic_stringIcSt11char_traitsIcESaIcEEES5_EvT_S7_RSaIT0_E.exitthread-pre-split.i.i: ; preds = %.lr.ph.i.i.i.i.i
  %.pr.i.i = load ptr, ptr %5, align 8
  br label %_ZSt8_DestroyIPNSt7__cxx1112basic_stringIcSt11char_traitsIcESaIcEEES5_EvT_S7_RSaIT0_E.exit.i.i

_ZSt8_DestroyIPNSt7__cxx1112basic_stringIcSt11char_traitsIcESaIcEEES5_EvT_S7_RSaIT0_E.exit.i.i: ; preds = %_ZSt8_DestroyIPNSt7__cxx1112basic_stringIcSt11char_traitsIcESaIcEEES5_EvT_S7_RSaIT0_E.exitthread-pre-split.i.i, %2
  %10 = phi ptr [ %.pr.i.i, %_ZSt8_DestroyIPNSt7__cxx1112basic_stringIcSt11char_traitsIcESaIcEEES5_EvT_S7_RSaIT0_E.exitthread-pre-split.i.i ], [ %6, %2 ]
  %.not.i.i.i.i = icmp eq ptr %10, null
  br i1 %.not.i.i.i.i, label %_ZN8t_filenmD2Ev.exit, label %11

11:                                               ; preds = %_ZSt8_DestroyIPNSt7__cxx1112basic_stringIcSt11char_traitsIcESaIcEEES5_EvT_S7_RSaIT0_E.exit.i.i
  tail call void @_ZdlPv(ptr noundef nonnull %10) #19
  br label %_ZN8t_filenmD2Ev.exit

_ZN8t_filenmD2Ev.exit:                            ; preds = %_ZSt8_DestroyIPNSt7__cxx1112basic_stringIcSt11char_traitsIcESaIcEEES5_EvT_S7_RSaIT0_E.exit.i.i, %11
  %12 = icmp eq ptr %4, @_ZZ13gmx_pme_erroriPPcE3fnm
  br i1 %12, label %13, label %2

13:                                               ; preds = %_ZN8t_filenmD2Ev.exit
  ret void
}